; Function Attrs: nofree noinline norecurse nosync nounwind memory(read, argmem: readwrite, inaccessiblemem: none) uwtable
define hidden range(i32 0, 2) i32 @BrotliSafeReadBits32Slow(ptr noundef captures(none) %0, i64 noundef %1, ptr noundef writeonly captures(none) %2) local_unnamed_addr #2 {
  %4 = load i64, ptr %0, align 8, !tbaa !10
  %5 = getelementptr inbounds nuw i8, ptr %0, i64 8
  %6 = load i64, ptr %5, align 8, !tbaa !3
  %7 = getelementptr inbounds nuw i8, ptr %0, i64 16
  %8 = load ptr, ptr %7, align 8, !tbaa !11
  %9 = getelementptr inbounds nuw i8, ptr %0, i64 32
  %10 = load ptr, ptr %9, align 8, !tbaa !12
  %11 = ptrtoint ptr %10 to i64
  %12 = ptrtoint ptr %8 to i64
  %13 = sub i64 %11, %12
  %14 = icmp ult i64 %6, 16
  br i1 %14, label %.lr.ph, label %._crit_edge

.lr.ph:                                           ; preds = %3, %BrotliPullByte.exit.i
  %15 = phi i64 [ %22, %BrotliPullByte.exit.i ], [ %4, %3 ]
  %16 = phi ptr [ %24, %BrotliPullByte.exit.i ], [ %8, %3 ]
  %17 = phi i64 [ %23, %BrotliPullByte.exit.i ], [ %6, %3 ]
  %18 = icmp eq ptr %16, %10
  br i1 %18, label %BrotliSafeReadBits.exit.thread, label %BrotliPullByte.exit.i

BrotliPullByte.exit.i:                            ; preds = %.lr.ph
  %19 = load i8, ptr %16, align 1, !tbaa !13
  %20 = zext i8 %19 to i64
  %21 = shl nuw nsw i64 %20, %17
  %22 = or i64 %21, %15
  store i64 %22, ptr %0, align 8, !tbaa !10
  %23 = add nuw nsw i64 %17, 8
  store i64 %23, ptr %5, align 8, !tbaa !3
  %24 = getelementptr inbounds nuw i8, ptr %16, i64 1
  store ptr %24, ptr %7, align 8, !tbaa !11
  %25 = icmp ult i64 %17, 8
  br i1 %25, label %.lr.ph, label %._crit_edge, !llvm.loop !14

._crit_edge:                                      ; preds = %BrotliPullByte.exit.i, %3
  %.promoted36 = phi ptr [ %8, %3 ], [ %24, %BrotliPullByte.exit.i ]
  %26 = phi i64 [ %4, %3 ], [ %22, %BrotliPullByte.exit.i ]
  %.lcssa29 = phi i64 [ %6, %3 ], [ %23, %BrotliPullByte.exit.i ]
  %27 = and i64 %26, 65535
  %28 = add i64 %.lcssa29, -16
  store i64 %28, ptr %5, align 8, !tbaa !3
  %29 = lshr i64 %26, 16
  store i64 %29, ptr %0, align 8, !tbaa !10
  %30 = add i64 %1, -16
  %31 = icmp ult i64 %28, %30
  br i1 %31, label %.lr.ph33, label %._crit_edge34

.lr.ph33:                                         ; preds = %._crit_edge, %BrotliPullByte.exit.i8
  %32 = phi i64 [ %39, %BrotliPullByte.exit.i8 ], [ %29, %._crit_edge ]
  %33 = phi ptr [ %41, %BrotliPullByte.exit.i8 ], [ %.promoted36, %._crit_edge ]
  %34 = phi i64 [ %40, %BrotliPullByte.exit.i8 ], [ %28, %._crit_edge ]
  %35 = icmp eq ptr %33, %10
  br i1 %35, label %BrotliSafeReadBits.exit.thread, label %BrotliPullByte.exit.i8

BrotliPullByte.exit.i8:                           ; preds = %.lr.ph33
  %36 = load i8, ptr %33, align 1, !tbaa !13
  %37 = zext i8 %36 to i64
  %38 = shl i64 %37, %34
  %39 = or i64 %38, %32
  store i64 %39, ptr %0, align 8, !tbaa !10
  %40 = add i64 %34, 8
  store i64 %40, ptr %5, align 8, !tbaa !3
  %41 = getelementptr inbounds nuw i8, ptr %33, i64 1
  store ptr %41, ptr %7, align 8, !tbaa !11
  %42 = icmp ult i64 %40, %30
  br i1 %42, label %.lr.ph33, label %._crit_edge34, !llvm.loop !14

BrotliSafeReadBits.exit.thread:                   ; preds = %.lr.ph, %.lr.ph33
  store i64 %4, ptr %0, align 8, !tbaa !10
  store i64 %6, ptr %5, align 8, !tbaa !3
  store ptr %8, ptr %7, align 8, !tbaa !11
  %43 = getelementptr i8, ptr %8, i64 %13
  store ptr %43, ptr %9, align 8, !tbaa !12
  %44 = add i64 %13, -28
  %45 = icmp ult i64 %44, -29
  br i1 %45, label %46, label %49

46:                                               ; preds = %BrotliSafeReadBits.exit.thread
  %47 = getelementptr i8, ptr %43, i64 -27
  %48 = getelementptr inbounds nuw i8, ptr %0, i64 24
  store ptr %47, ptr %48, align 8, !tbaa !16
  br label %BrotliBitReaderSetInput.exit

49:                                               ; preds = %BrotliSafeReadBits.exit.thread
  %50 = getelementptr inbounds nuw i8, ptr %0, i64 24
  store ptr %8, ptr %50, align 8, !tbaa !16
  br label %BrotliBitReaderSetInput.exit

._crit_edge34:                                    ; preds = %BrotliPullByte.exit.i8, %._crit_edge
  %51 = phi i64 [ %29, %._crit_edge ], [ %39, %BrotliPullByte.exit.i8 ]
  %.lcssa = phi i64 [ %28, %._crit_edge ], [ %40, %BrotliPullByte.exit.i8 ]
  %52 = getelementptr inbounds nuw [33 x i64], ptr @kBrotliBitMask, i64 0, i64 %30
  %53 = load i64, ptr %52, align 8, !tbaa !17
  %54 = and i64 %53, %51
  %55 = sub i64 %.lcssa, %30
  store i64 %55, ptr %5, align 8, !tbaa !3
  %56 = lshr i64 %51, %30
  store i64 %56, ptr %0, align 8, !tbaa !10
  %57 = shl i64 %54, 16
  %58 = or disjoint i64 %57, %27
  store i64 %58, ptr %2, align 8, !tbaa !17
  br label %BrotliBitReaderSetInput.exit

BrotliBitReaderSetInput.exit:                     ; preds = %49, %46, %._crit_edge34
  %.0 = phi i32 [ 1, %._crit_edge34 ], [ 0, %46 ], [ 0, %49 ]
  ret i32 %.0
}